; Function Attrs: null_pointer_is_valid sspstrong uwtable
define internal fastcc range(i32 2, 0) i32 @dissect_rdm_pd_supported_parameters(ptr noundef %0, ptr noundef %1, i8 noundef zeroext %2, i8 noundef zeroext %3, i16 noundef zeroext %4) unnamed_addr #1 {
  %cond = icmp eq i8 %2, 33
  %6 = icmp ugt i8 %3, 1
  %or.cond = and i1 %cond, %6
  br i1 %or.cond, label %.preheader, label %.loopexit

.preheader:                                       ; preds = %5
  %cond.i = icmp eq i16 %4, 25972
  br i1 %cond.i, label %.preheader.split, label %.preheader.split.us

.preheader.split.us:                              ; preds = %.preheader, %.preheader.split.us
  %.1.us = phi i32 [ %9, %.preheader.split.us ], [ 23, %.preheader ]
  %.0.us = phi i8 [ %10, %.preheader.split.us ], [ %3, %.preheader ]
  %7 = tail call zeroext i16 @tvb_get_ntohs(ptr noundef %0, i32 noundef %.1.us)
  %hf_rdm_pd_parameter_id.val.i.us = load i32, ptr @hf_rdm_pd_parameter_id, align 4
  %8 = tail call ptr @proto_tree_add_item(ptr noundef %1, i32 noundef %hf_rdm_pd_parameter_id.val.i.us, ptr noundef %0, i32 noundef %.1.us, i32 noundef 2, i32 noundef 0)
  %9 = add nuw nsw i32 %.1.us, 2
  %10 = add i8 %.0.us, -2
  %.old2.us = icmp ugt i8 %10, 1
  br i1 %.old2.us, label %.preheader.split.us, label %.loopexit

.preheader.split:                                 ; preds = %.preheader, %.preheader.split
  %.1 = phi i32 [ %14, %.preheader.split ], [ 23, %.preheader ]
  %.0 = phi i8 [ %15, %.preheader.split ], [ %3, %.preheader ]
  %11 = tail call zeroext i16 @tvb_get_ntohs(ptr noundef %0, i32 noundef %.1)
  %hf_rdm_pd_parameter_id.val.i = load i32, ptr @hf_rdm_pd_parameter_id, align 4
  %hf_etc_pd_parameter_id.val.i = load i32, ptr @hf_etc_pd_parameter_id, align 4
  %12 = icmp slt i16 %11, 0
  %spec.select = select i1 %12, i32 %hf_etc_pd_parameter_id.val.i, i32 %hf_rdm_pd_parameter_id.val.i
  %13 = tail call ptr @proto_tree_add_item(ptr noundef %1, i32 noundef %spec.select, ptr noundef %0, i32 noundef %.1, i32 noundef 2, i32 noundef 0)
  %14 = add nuw nsw i32 %.1, 2
  %15 = add i8 %.0, -2
  %.old2 = icmp ugt i8 %15, 1
  br i1 %.old2, label %.preheader.split, label %.loopexit

.loopexit:                                        ; preds = %.preheader.split.us, %.preheader.split, %5
  %.013 = phi i32 [ 23, %5 ], [ %14, %.preheader.split ], [ %9, %.preheader.split.us ]
  ret i32 %.013
}